target datalayout = "e-m:e-p270:32:32-p271:32:32-p272:64:64-i64:64-i128:128-f80:128-n8:16:32:64-S128"
target triple = "x86_64-pc-linux-gnu"

%class.QObject = type { ptr, %class.QScopedPointer }
%class.QScopedPointer = type { ptr }
%struct.QListData = type { ptr }
%class.MultiViewer_Container = type { %class.Splitter, %class.MeshDocument, ptr, i32, ptr, %class.QList.28 }
%class.Splitter = type { %class.QSplitter }
%class.QSplitter = type { %class.QFrame }
%class.QFrame = type { %class.QWidget }
%class.QWidget = type { %class.QObject, %class.QPaintDevice, ptr }
%class.QPaintDevice = type { ptr, i16, ptr }
%class.MeshDocument = type { %class.QObject, %class.GLLogStream, %class.FilterScript, %"class.std::__cxx11::list", %"class.std::__cxx11::list.22", i32, i32, %class.QString, %class.QString, %class.MeshDocumentStateData, i8, ptr, ptr }
%class.GLLogStream = type { %class.QObject, i32, %class.QList, %class.QMultiMap }
%class.QList = type { %union.anon }
%union.anon = type { %struct.QListData }
%class.QMultiMap = type { %class.QMap }
%class.QMap = type { ptr }
%class.FilterScript = type { %class.QObject, %class.QList.16 }
%class.QList.16 = type { %union.anon.18 }
%union.anon.18 = type { %struct.QListData }
%"class.std::__cxx11::list" = type { %"class.std::__cxx11::_List_base" }
%"class.std::__cxx11::_List_base" = type { %"struct.std::__cxx11::_List_base<MeshModel, std::allocator<MeshModel>>::_List_impl" }
%"struct.std::__cxx11::_List_base<MeshModel, std::allocator<MeshModel>>::_List_impl" = type { %"struct.std::__detail::_List_node_header" }
%"struct.std::__detail::_List_node_header" = type { %"struct.std::__detail::_List_node_base", i64 }
%"struct.std::__detail::_List_node_base" = type { ptr, ptr }
%"class.std::__cxx11::list.22" = type { %"class.std::__cxx11::_List_base.23" }
%"class.std::__cxx11::_List_base.23" = type { %"struct.std::__cxx11::_List_base<RasterModel, std::allocator<RasterModel>>::_List_impl" }
%"struct.std::__cxx11::_List_base<RasterModel, std::allocator<RasterModel>>::_List_impl" = type { %"struct.std::__detail::_List_node_header" }
%class.QString = type { ptr }
%class.MeshDocumentStateData = type { %class.QReadWriteLock, %class.QMap.27 }
%class.QReadWriteLock = type { %class.QAtomicPointer }
%class.QAtomicPointer = type { %class.QBasicAtomicPointer }
%class.QBasicAtomicPointer = type { %"struct.std::atomic" }
%"struct.std::atomic" = type { %"struct.std::__atomic_base" }
%"struct.std::__atomic_base" = type { ptr }
%class.QMap.27 = type { ptr }
%class.QList.28 = type { %union.anon.30 }
%union.anon.30 = type { %struct.QListData }

; Function Attrs: mustprogress uwtable
define void @_ZN21MultiViewer_Container6updateEi(ptr noundef nonnull align 8 dereferenceable(272) %0, i32 noundef %1) #5 align 2 {
  %3 = alloca ptr, align 8
  %4 = alloca i32, align 4
  store ptr %0, ptr %3, align 8
  store i32 %1, ptr %4, align 4
  %5 = load ptr, ptr %3, align 8
  %6 = load i32, ptr %4, align 4
  %7 = call noundef ptr @_ZN21MultiViewer_Container9getViewerEi(ptr noundef nonnull align 8 dereferenceable(272) %5, i32 noundef %6)
  call void @_ZN7QWidget6updateEv(ptr noundef nonnull align 8 dereferenceable(48) %7)
  ret void
}

; Function Attrs: mustprogress uwtable
define void @_ZN21MultiViewer_Container13updateCurrentEi(ptr noundef nonnull align 8 dereferenceable(272) %0, i32 noundef %1) #5 align 2 {
  %3 = alloca ptr, align 8
  %4 = alloca i32, align 4
  %5 = alloca i32, align 4
  store ptr %0, ptr %3, align 8
  store i32 %1, ptr %4, align 4
  %6 = load ptr, ptr %3, align 8
  %7 = getelementptr inbounds %class.MultiViewer_Container, ptr %6, i32 0, i32 3
  %8 = load i32, ptr %7, align 8
  store i32 %8, ptr %5, align 4
  %9 = load i32, ptr %4, align 4
  %10 = getelementptr inbounds %class.MultiViewer_Container, ptr %6, i32 0, i32 3
  store i32 %9, ptr %10, align 8
  %11 = getelementptr inbounds %class.MultiViewer_Container, ptr %6, i32 0, i32 3
  %12 = load i32, ptr %11, align 8
  %13 = call noundef ptr @_ZN21MultiViewer_Container9getViewerEi(ptr noundef nonnull align 8 dereferenceable(272) %6, i32 noundef %12)
  %14 = getelementptr inbounds %class.MultiViewer_Container, ptr %6, i32 0, i32 4
  store ptr %13, ptr %14, align 8
  %15 = load i32, ptr %5, align 4
  %16 = call noundef ptr @_ZN21MultiViewer_Container9getViewerEi(ptr noundef nonnull align 8 dereferenceable(272) %6, i32 noundef %15)
  %17 = icmp ne ptr %16, null
  br i1 %17, label %18, label %20

18:                                               ; preds = %2
  %19 = load i32, ptr %5, align 4
  call void @_ZN21MultiViewer_Container6updateEi(ptr noundef nonnull align 8 dereferenceable(272) %6, i32 noundef %19)
  br label %20

20:                                               ; preds = %18, %2
  call void @_ZN21MultiViewer_Container21updateMainWindowMenusEv(ptr noundef nonnull align 8 dereferenceable(272) %6)
  %21 = load i32, ptr %4, align 4
  %22 = load i32, ptr %5, align 4
  %23 = icmp ne i32 %21, %22
  br i1 %23, label %24, label %25

24:                                               ; preds = %20
  call void @_ZN21MultiViewer_Container20updateDocumentViewerEv(ptr noundef nonnull align 8 dereferenceable(272) %6)
  br label %25

25:                                               ; preds = %24, %20
  ret void
}