; Function Attrs: mustprogress uwtable
define void @_ZN21MultiViewer_Container13updateCurrentEi(ptr noundef nonnull align 8 dereferenceable(272) %0, i32 noundef %1) local_unnamed_addr #9 align 2 {
  %3 = getelementptr inbounds i8, ptr %0, i64 248
  %4 = load i32, ptr %3, align 8
  store i32 %1, ptr %3, align 8
  %5 = tail call noundef ptr @_ZN21MultiViewer_Container9getViewerEi(ptr noundef nonnull align 8 dereferenceable(272) %0, i32 noundef %1)
  %6 = getelementptr inbounds i8, ptr %0, i64 256
  store ptr %5, ptr %6, align 8
  %7 = tail call noundef ptr @_ZN21MultiViewer_Container9getViewerEi(ptr noundef nonnull align 8 dereferenceable(272) %0, i32 noundef %4)
  %.not = icmp eq ptr %7, null
  br i1 %.not, label %10, label %8

8:                                                ; preds = %2
  %9 = tail call noundef ptr @_ZN21MultiViewer_Container9getViewerEi(ptr noundef nonnull align 8 dereferenceable(272) %0, i32 noundef %4)
  tail call void @_ZN7QWidget6updateEv(ptr noundef nonnull align 8 dereferenceable(48) %9)
  br label %10

10:                                               ; preds = %8, %2
  tail call void @_ZN21MultiViewer_Container21updateMainWindowMenusEv(ptr noundef nonnull align 8 dereferenceable(272) %0)
  %.not5 = icmp eq i32 %4, %1
  br i1 %.not5, label %12, label %11

11:                                               ; preds = %10
  tail call void @_ZN21MultiViewer_Container20updateDocumentViewerEv(ptr noundef nonnull align 8 dereferenceable(272) %0)
  br label %12

12:                                               ; preds = %11, %10
  ret void
}